target datalayout = "e-m:e-p270:32:32-p271:32:32-p272:64:64-i64:64-i128:128-f80:128-n8:16:32:64-S128"
target triple = "x86_64-unknown-linux-gnu"

%"class.boost::detail::shared_count" = type { ptr }
%"class.boost::shared_ptr.54" = type { ptr, %"class.boost::detail::shared_count" }
%"class.QuantLib::GFunctionFactory::GFunctionStandard" = type { %"class.QuantLib::GFunction", i32, double, i64 }
%"class.QuantLib::GFunction" = type { ptr }
%"class.boost::detail::sp_counted_base" = type { ptr, i32, i32 }
%"class.boost::detail::sp_counted_impl_p.168" = type { %"class.boost::detail::sp_counted_base", ptr }

@_ZTVN8QuantLib9GFunctionE = linkonce_odr unnamed_addr constant { [7 x ptr] } { [7 x ptr] [ptr null, ptr @_ZTIN8QuantLib9GFunctionE, ptr @_ZN8QuantLib9GFunctionD2Ev, ptr @_ZN8QuantLib9GFunctionD0Ev, ptr @__cxa_pure_virtual, ptr @__cxa_pure_virtual, ptr @__cxa_pure_virtual] }, comdat, align 8

; Function Attrs: mustprogress nounwind uwtable
define linkonce_odr void @_ZN5boost6detail15sp_counted_baseC2Ev(ptr noundef nonnull align 8 dereferenceable(16) %this) unnamed_addr #1 comdat align 2 {
entry:
  %this.addr = alloca ptr, align 8
  store ptr %this, ptr %this.addr, align 8, !tbaa !3
  %this1 = load ptr, ptr %this.addr, align 8
  store ptr getelementptr inbounds inrange(-16, 56) ({ [9 x ptr] }, ptr @_ZTVN5boost6detail15sp_counted_baseE, i32 0, i32 0, i32 2), ptr %this1, align 8, !tbaa !12
  %use_count_ = getelementptr inbounds nuw %"class.boost::detail::sp_counted_base", ptr %this1, i32 0, i32 1
  store i32 1, ptr %use_count_, align 8, !tbaa !291
  %weak_count_ = getelementptr inbounds nuw %"class.boost::detail::sp_counted_base", ptr %this1, i32 0, i32 2
  store i32 1, ptr %weak_count_, align 4, !tbaa !292
  ret void
}

; Function Attrs: inlinehint mustprogress nounwind uwtable
define linkonce_odr void @_ZN5boost14checked_deleteIN8QuantLib16GFunctionFactory17GFunctionStandardEEEvPT_(ptr noundef %x) #5 comdat {
entry:
  %x.addr = alloca ptr, align 8
  store ptr %x, ptr %x.addr, align 8, !tbaa !3
  %0 = load ptr, ptr %x.addr, align 8, !tbaa !3
  %isnull = icmp eq ptr %0, null
  br i1 %isnull, label %delete.end, label %delete.notnull

delete.notnull:                                   ; preds = %entry
  %vtable = load ptr, ptr %0, align 8, !tbaa !12
  %vfn = getelementptr inbounds ptr, ptr %vtable, i64 1
  %1 = load ptr, ptr %vfn, align 8
  call void %1(ptr noundef nonnull align 8 dereferenceable(32) %0) #18
  br label %delete.end

delete.end:                                       ; preds = %delete.notnull, %entry
  ret void
}

; Function Attrs: mustprogress nounwind uwtable
define linkonce_odr void @_ZN5boost6detail17sp_counted_impl_pIN8QuantLib16GFunctionFactory17GFunctionStandardEEC2EPS4_(ptr noundef nonnull align 8 dereferenceable(24) %this, ptr noundef %px) unnamed_addr #1 comdat align 2 {
entry:
  %this.addr = alloca ptr, align 8
  %px.addr = alloca ptr, align 8
  store ptr %this, ptr %this.addr, align 8, !tbaa !3
  store ptr %px, ptr %px.addr, align 8, !tbaa !3
  %this1 = load ptr, ptr %this.addr, align 8
  call void @_ZN5boost6detail15sp_counted_baseC2Ev(ptr noundef nonnull align 8 dereferenceable(16) %this1)
  store ptr getelementptr inbounds inrange(-16, 56) ({ [9 x ptr] }, ptr @_ZTVN5boost6detail17sp_counted_impl_pIN8QuantLib16GFunctionFactory17GFunctionStandardEEE, i32 0, i32 0, i32 2), ptr %this1, align 8, !tbaa !12
  %px_ = getelementptr inbounds nuw %"class.boost::detail::sp_counted_impl_p.168", ptr %this1, i32 0, i32 1
  %0 = load ptr, ptr %px.addr, align 8, !tbaa !3
  store ptr %0, ptr %px_, align 8, !tbaa !316
  ret void
}

; Function Attrs: inlinehint mustprogress nounwind uwtable
define linkonce_odr void @_ZN5boost6detail26sp_enable_shared_from_thisEz(...) #5 comdat {
entry:
  ret void
}

; Function Attrs: mustprogress nounwind uwtable
define linkonce_odr void @_ZN5boost6detail12shared_count4swapERS1_(ptr noundef nonnull align 8 dereferenceable(8) %this, ptr noundef nonnull align 8 dereferenceable(8) %r) #1 comdat align 2 {
entry:
  %this.addr = alloca ptr, align 8
  %r.addr = alloca ptr, align 8
  %tmp = alloca ptr, align 8
  store ptr %this, ptr %this.addr, align 8, !tbaa !3
  store ptr %r, ptr %r.addr, align 8, !tbaa !3
  %this1 = load ptr, ptr %this.addr, align 8
  call void @llvm.lifetime.start.p0(i64 8, ptr %tmp) #18
  %0 = load ptr, ptr %r.addr, align 8, !tbaa !3
  %pi_ = getelementptr inbounds nuw %"class.boost::detail::shared_count", ptr %0, i32 0, i32 0
  %1 = load ptr, ptr %pi_, align 8, !tbaa !204
  store ptr %1, ptr %tmp, align 8, !tbaa !3
  %pi_2 = getelementptr inbounds nuw %"class.boost::detail::shared_count", ptr %this1, i32 0, i32 0
  %2 = load ptr, ptr %pi_2, align 8, !tbaa !204
  %3 = load ptr, ptr %r.addr, align 8, !tbaa !3
  %pi_3 = getelementptr inbounds nuw %"class.boost::detail::shared_count", ptr %3, i32 0, i32 0
  store ptr %2, ptr %pi_3, align 8, !tbaa !204
  %4 = load ptr, ptr %tmp, align 8, !tbaa !3
  %pi_4 = getelementptr inbounds nuw %"class.boost::detail::shared_count", ptr %this1, i32 0, i32 0
  store ptr %4, ptr %pi_4, align 8, !tbaa !204
  call void @llvm.lifetime.end.p0(i64 8, ptr %tmp) #18
  ret void
}

; Function Attrs: mustprogress uwtable
define linkonce_odr void @_ZN5boost6detail12shared_countC2IN8QuantLib16GFunctionFactory17GFunctionStandardEEEPT_(ptr noundef nonnull align 8 dereferenceable(8) %this, ptr noundef %p) unnamed_addr #2 comdat align 2 personality ptr @__gxx_personality_v0 {
entry:
  %this.addr = alloca ptr, align 8
  %p.addr = alloca ptr, align 8
  %exn.slot = alloca ptr, align 8
  %ehselector.slot = alloca i32, align 4
  store ptr %this, ptr %this.addr, align 8, !tbaa !3
  store ptr %p, ptr %p.addr, align 8, !tbaa !3
  %this1 = load ptr, ptr %this.addr, align 8
  %pi_ = getelementptr inbounds nuw %"class.boost::detail::shared_count", ptr %this1, i32 0, i32 0
  store ptr null, ptr %pi_, align 8, !tbaa !204
  %call = invoke noalias noundef nonnull ptr @_Znwm(i64 noundef 24) #26
          to label %invoke.cont unwind label %lpad

invoke.cont:                                      ; preds = %entry
  %0 = load ptr, ptr %p.addr, align 8, !tbaa !3
  invoke void @_ZN5boost6detail17sp_counted_impl_pIN8QuantLib16GFunctionFactory17GFunctionStandardEEC2EPS4_(ptr noundef nonnull align 8 dereferenceable(24) %call, ptr noundef %0)
          to label %invoke.cont3 unwind label %lpad2

invoke.cont3:                                     ; preds = %invoke.cont
  %pi_4 = getelementptr inbounds nuw %"class.boost::detail::shared_count", ptr %this1, i32 0, i32 0
  store ptr %call, ptr %pi_4, align 8, !tbaa !204
  br label %try.cont

lpad:                                             ; preds = %entry
  %1 = landingpad { ptr, i32 }
          catch ptr null
  %2 = extractvalue { ptr, i32 } %1, 0
  store ptr %2, ptr %exn.slot, align 8
  %3 = extractvalue { ptr, i32 } %1, 1
  store i32 %3, ptr %ehselector.slot, align 4
  br label %catch

lpad2:                                            ; preds = %invoke.cont
  %4 = landingpad { ptr, i32 }
          catch ptr null
  %5 = extractvalue { ptr, i32 } %4, 0
  store ptr %5, ptr %exn.slot, align 8
  %6 = extractvalue { ptr, i32 } %4, 1
  store i32 %6, ptr %ehselector.slot, align 4
  call void @_ZdlPvm(ptr noundef %call, i64 noundef 24) #27
  br label %catch

catch:                                            ; preds = %lpad2, %lpad
  %exn = load ptr, ptr %exn.slot, align 8
  %7 = call ptr @__cxa_begin_catch(ptr %exn) #18
  %8 = load ptr, ptr %p.addr, align 8, !tbaa !3
  call void @_ZN5boost14checked_deleteIN8QuantLib16GFunctionFactory17GFunctionStandardEEEvPT_(ptr noundef %8) #18
  invoke void @__cxa_rethrow() #25
          to label %unreachable unwind label %lpad5

lpad5:                                            ; preds = %catch
  %9 = landingpad { ptr, i32 }
          cleanup
  %10 = extractvalue { ptr, i32 } %9, 0
  store ptr %10, ptr %exn.slot, align 8
  %11 = extractvalue { ptr, i32 } %9, 1
  store i32 %11, ptr %ehselector.slot, align 4
  invoke void @__cxa_end_catch()
          to label %invoke.cont6 unwind label %terminate.lpad

invoke.cont6:                                     ; preds = %lpad5
  br label %eh.resume

try.cont:                                         ; preds = %invoke.cont3
  ret void

eh.resume:                                        ; preds = %invoke.cont6
  %exn7 = load ptr, ptr %exn.slot, align 8
  %sel = load i32, ptr %ehselector.slot, align 4
  %lpad.val = insertvalue { ptr, i32 } poison, ptr %exn7, 0
  %lpad.val8 = insertvalue { ptr, i32 } %lpad.val, i32 %sel, 1
  resume { ptr, i32 } %lpad.val8

terminate.lpad:                                   ; preds = %lpad5
  %12 = landingpad { ptr, i32 }
          catch ptr null
  %13 = extractvalue { ptr, i32 } %12, 0
  call void @__clang_call_terminate(ptr %13) #24
  unreachable

unreachable:                                      ; preds = %catch
  unreachable
}

; Function Attrs: inlinehint mustprogress uwtable
define linkonce_odr void @_ZN5boost6detail20sp_pointer_constructIN8QuantLib9GFunctionENS2_16GFunctionFactory17GFunctionStandardEEEvPNS_10shared_ptrIT_EEPT0_RNS0_12shared_countE(ptr noundef %ppx, ptr noundef %p, ptr noundef nonnull align 8 dereferenceable(8) %pn) #4 comdat {
entry:
  %ppx.addr = alloca ptr, align 8
  %p.addr = alloca ptr, align 8
  %pn.addr = alloca ptr, align 8
  %ref.tmp = alloca %"class.boost::detail::shared_count", align 8
  store ptr %ppx, ptr %ppx.addr, align 8, !tbaa !3
  store ptr %p, ptr %p.addr, align 8, !tbaa !3
  store ptr %pn, ptr %pn.addr, align 8, !tbaa !3
  call void @llvm.lifetime.start.p0(i64 8, ptr %ref.tmp) #18
  %0 = load ptr, ptr %p.addr, align 8, !tbaa !3
  call void @_ZN5boost6detail12shared_countC2IN8QuantLib16GFunctionFactory17GFunctionStandardEEEPT_(ptr noundef nonnull align 8 dereferenceable(8) %ref.tmp, ptr noundef %0)
  %1 = load ptr, ptr %pn.addr, align 8, !tbaa !3
  call void @_ZN5boost6detail12shared_count4swapERS1_(ptr noundef nonnull align 8 dereferenceable(8) %ref.tmp, ptr noundef nonnull align 8 dereferenceable(8) %1) #18
  call void @_ZN5boost6detail12shared_countD2Ev(ptr noundef nonnull align 8 dereferenceable(8) %ref.tmp) #18
  call void @llvm.lifetime.end.p0(i64 8, ptr %ref.tmp) #18
  %2 = load ptr, ptr %ppx.addr, align 8, !tbaa !3
  %3 = load ptr, ptr %p.addr, align 8, !tbaa !3
  %4 = load ptr, ptr %p.addr, align 8, !tbaa !3
  call void (...) @_ZN5boost6detail26sp_enable_shared_from_thisEz(ptr noundef %2, ptr noundef %3, ptr noundef %4)
  ret void
}

; Function Attrs: mustprogress nounwind uwtable
define linkonce_odr void @_ZN5boost6detail12shared_countC2Ev(ptr noundef nonnull align 8 dereferenceable(8) %this) unnamed_addr #1 comdat align 2 {
entry:
  %this.addr = alloca ptr, align 8
  store ptr %this, ptr %this.addr, align 8, !tbaa !3
  %this1 = load ptr, ptr %this.addr, align 8
  %pi_ = getelementptr inbounds nuw %"class.boost::detail::shared_count", ptr %this1, i32 0, i32 0
  store ptr null, ptr %pi_, align 8, !tbaa !204
  ret void
}

; Function Attrs: inlinehint mustprogress nounwind uwtable
define linkonce_odr void @_ZN8QuantLib9GFunctionC2Ev(ptr noundef nonnull align 8 dereferenceable(8) %this) unnamed_addr #5 comdat align 2 {
entry:
  %this.addr = alloca ptr, align 8
  store ptr %this, ptr %this.addr, align 8, !tbaa !3
  %this1 = load ptr, ptr %this.addr, align 8
  store ptr getelementptr inbounds inrange(-16, 40) ({ [7 x ptr] }, ptr @_ZTVN8QuantLib9GFunctionE, i32 0, i32 0, i32 2), ptr %this1, align 8, !tbaa !12
  ret void
}

; Function Attrs: mustprogress uwtable
define linkonce_odr void @_ZN5boost10shared_ptrIN8QuantLib9GFunctionEEC2INS1_16GFunctionFactory17GFunctionStandardEEEPT_(ptr noundef nonnull align 8 dereferenceable(16) %this, ptr noundef %p) unnamed_addr #2 comdat align 2 personality ptr @__gxx_personality_v0 {
entry:
  %this.addr = alloca ptr, align 8
  %p.addr = alloca ptr, align 8
  %exn.slot = alloca ptr, align 8
  %ehselector.slot = alloca i32, align 4
  store ptr %this, ptr %this.addr, align 8, !tbaa !3
  store ptr %p, ptr %p.addr, align 8, !tbaa !3
  %this1 = load ptr, ptr %this.addr, align 8
  %px = getelementptr inbounds nuw %"class.boost::shared_ptr.54", ptr %this1, i32 0, i32 0
  %0 = load ptr, ptr %p.addr, align 8, !tbaa !3
  store ptr %0, ptr %px, align 8, !tbaa !59
  %pn = getelementptr inbounds nuw %"class.boost::shared_ptr.54", ptr %this1, i32 0, i32 1
  call void @_ZN5boost6detail12shared_countC2Ev(ptr noundef nonnull align 8 dereferenceable(8) %pn) #18
  %1 = load ptr, ptr %p.addr, align 8, !tbaa !3
  %pn2 = getelementptr inbounds nuw %"class.boost::shared_ptr.54", ptr %this1, i32 0, i32 1
  invoke void @_ZN5boost6detail20sp_pointer_constructIN8QuantLib9GFunctionENS2_16GFunctionFactory17GFunctionStandardEEEvPNS_10shared_ptrIT_EEPT0_RNS0_12shared_countE(ptr noundef %this1, ptr noundef %1, ptr noundef nonnull align 8 dereferenceable(8) %pn2)
          to label %invoke.cont unwind label %lpad

invoke.cont:                                      ; preds = %entry
  ret void

lpad:                                             ; preds = %entry
  %2 = landingpad { ptr, i32 }
          cleanup
  %3 = extractvalue { ptr, i32 } %2, 0
  store ptr %3, ptr %exn.slot, align 8
  %4 = extractvalue { ptr, i32 } %2, 1
  store i32 %4, ptr %ehselector.slot, align 4
  call void @_ZN5boost6detail12shared_countD2Ev(ptr noundef nonnull align 8 dereferenceable(8) %pn) #18
  br label %eh.resume

eh.resume:                                        ; preds = %lpad
  %exn = load ptr, ptr %exn.slot, align 8
  %sel = load i32, ptr %ehselector.slot, align 4
  %lpad.val = insertvalue { ptr, i32 } poison, ptr %exn, 0
  %lpad.val3 = insertvalue { ptr, i32 } %lpad.val, i32 %sel, 1
  resume { ptr, i32 } %lpad.val3
}

; Function Attrs: mustprogress nounwind uwtable
define linkonce_odr void @_ZN8QuantLib16GFunctionFactory17GFunctionStandardC2Emdm(ptr noundef nonnull align 8 dereferenceable(32) %this, i64 noundef %q, double noundef %delta, i64 noundef %swapLength) unnamed_addr #1 comdat align 2 {
entry:
  %this.addr = alloca ptr, align 8
  %q.addr = alloca i64, align 8
  %delta.addr = alloca double, align 8
  %swapLength.addr = alloca i64, align 8
  store ptr %this, ptr %this.addr, align 8, !tbaa !3
  store i64 %q, ptr %q.addr, align 8, !tbaa !30
  store double %delta, ptr %delta.addr, align 8, !tbaa !18
  store i64 %swapLength, ptr %swapLength.addr, align 8, !tbaa !30
  %this1 = load ptr, ptr %this.addr, align 8
  call void @_ZN8QuantLib9GFunctionC2Ev(ptr noundef nonnull align 8 dereferenceable(8) %this1) #18
  store ptr getelementptr inbounds inrange(-16, 40) ({ [7 x ptr] }, ptr @_ZTVN8QuantLib16GFunctionFactory17GFunctionStandardE, i32 0, i32 0, i32 2), ptr %this1, align 8, !tbaa !12
  %q_ = getelementptr inbounds nuw %"class.QuantLib::GFunctionFactory::GFunctionStandard", ptr %this1, i32 0, i32 1
  %0 = load i64, ptr %q.addr, align 8, !tbaa !30
  %conv = trunc i64 %0 to i32
  store i32 %conv, ptr %q_, align 8, !tbaa !124
  %delta_ = getelementptr inbounds nuw %"class.QuantLib::GFunctionFactory::GFunctionStandard", ptr %this1, i32 0, i32 2
  %1 = load double, ptr %delta.addr, align 8, !tbaa !18
  store double %1, ptr %delta_, align 8, !tbaa !125
  %swapLength_ = getelementptr inbounds nuw %"class.QuantLib::GFunctionFactory::GFunctionStandard", ptr %this1, i32 0, i32 3
  %2 = load i64, ptr %swapLength.addr, align 8, !tbaa !30
  store i64 %2, ptr %swapLength_, align 8, !tbaa !121
  ret void
}

; Function Attrs: mustprogress uwtable
define void @_ZN8QuantLib16GFunctionFactory20newGFunctionStandardEmdm(ptr dead_on_unwind noalias writable sret(%"class.boost::shared_ptr.54") align 8 %agg.result, i64 noundef %q, double noundef %delta, i64 noundef %swapLength) #2 align 2 personality ptr @__gxx_personality_v0 {
entry:
  %result.ptr = alloca ptr, align 8
  %q.addr = alloca i64, align 8
  %delta.addr = alloca double, align 8
  %swapLength.addr = alloca i64, align 8
  %exn.slot = alloca ptr, align 8
  %ehselector.slot = alloca i32, align 4
  store ptr %agg.result, ptr %result.ptr, align 8
  store i64 %q, ptr %q.addr, align 8, !tbaa !30
  store double %delta, ptr %delta.addr, align 8, !tbaa !18
  store i64 %swapLength, ptr %swapLength.addr, align 8, !tbaa !30
  %call = call noalias noundef nonnull ptr @_Znwm(i64 noundef 32) #26
  %0 = load i64, ptr %q.addr, align 8, !tbaa !30
  %1 = load double, ptr %delta.addr, align 8, !tbaa !18
  %2 = load i64, ptr %swapLength.addr, align 8, !tbaa !30
  invoke void @_ZN8QuantLib16GFunctionFactory17GFunctionStandardC2Emdm(ptr noundef nonnull align 8 dereferenceable(32) %call, i64 noundef %0, double noundef %1, i64 noundef %2)
          to label %invoke.cont unwind label %lpad

invoke.cont:                                      ; preds = %entry
  call void @_ZN5boost10shared_ptrIN8QuantLib9GFunctionEEC2INS1_16GFunctionFactory17GFunctionStandardEEEPT_(ptr noundef nonnull align 8 dereferenceable(16) %agg.result, ptr noundef %call)
  ret void

lpad:                                             ; preds = %entry
  %3 = landingpad { ptr, i32 }
          cleanup
  %4 = extractvalue { ptr, i32 } %3, 0
  store ptr %4, ptr %exn.slot, align 8
  %5 = extractvalue { ptr, i32 } %3, 1
  store i32 %5, ptr %ehselector.slot, align 4
  call void @_ZdlPvm(ptr noundef %call, i64 noundef 32) #27
  br label %eh.resume

eh.resume:                                        ; preds = %lpad
  %exn = load ptr, ptr %exn.slot, align 8
  %sel = load i32, ptr %ehselector.slot, align 4
  %lpad.val = insertvalue { ptr, i32 } poison, ptr %exn, 0
  %lpad.val1 = insertvalue { ptr, i32 } %lpad.val, i32 %sel, 1
  resume { ptr, i32 } %lpad.val1
}