; Function Attrs: mustprogress uwtable
define void @_ZN8QuantLib16GFunctionFactory20newGFunctionStandardEmdm(ptr dead_on_unwind noalias writable sret(%"class.boost::shared_ptr.54") align 8 %agg.result, i64 noundef %q, double noundef %delta, i64 noundef %swapLength) local_unnamed_addr #7 align 2 personality ptr @__gxx_personality_v0 {
entry:
  %call = tail call noalias noundef nonnull dereferenceable(32) ptr @_Znwm(i64 noundef 32) #40
  store ptr getelementptr inbounds inrange(-16, 40) (i8, ptr @_ZTVN8QuantLib16GFunctionFactory17GFunctionStandardE, i64 16), ptr %call, align 8, !tbaa !35
  %q_.i = getelementptr inbounds nuw i8, ptr %call, i64 8
  %conv.i = trunc i64 %q to i32
  store i32 %conv.i, ptr %q_.i, align 8, !tbaa !132
  %delta_.i = getelementptr inbounds nuw i8, ptr %call, i64 16
  store double %delta, ptr %delta_.i, align 8, !tbaa !135
  %swapLength_.i = getelementptr inbounds nuw i8, ptr %call, i64 24
  store i64 %swapLength, ptr %swapLength_.i, align 8, !tbaa !136
  store ptr %call, ptr %agg.result, align 8, !tbaa !117
  %pn.i = getelementptr inbounds nuw i8, ptr %agg.result, i64 8
  store ptr null, ptr %pn.i, align 8, !tbaa !37
  %call.i.i.i = invoke noalias noundef nonnull dereferenceable(24) ptr @_Znwm(i64 noundef 24) #40
          to label %_ZN5boost10shared_ptrIN8QuantLib9GFunctionEEC2INS1_16GFunctionFactory17GFunctionStandardEEEPT_.exit unwind label %lpad.i.i.i

lpad.i.i.i:                                       ; preds = %entry
  %0 = landingpad { ptr, i32 }
          catch ptr null
  %1 = extractvalue { ptr, i32 } %0, 0
  %2 = tail call ptr @__cxa_begin_catch(ptr %1) #35
  %vtable.i.i.i.i = load ptr, ptr %call, align 8, !tbaa !35
  %vfn.i.i.i.i = getelementptr inbounds i8, ptr %vtable.i.i.i.i, i64 8
  %3 = load ptr, ptr %vfn.i.i.i.i, align 8
  tail call void %3(ptr noundef nonnull align 8 dereferenceable(32) %call) #35
  invoke void @__cxa_rethrow() #37
          to label %unreachable.i.i.i unwind label %lpad5.i.i.i

lpad5.i.i.i:                                      ; preds = %lpad.i.i.i
  %4 = landingpad { ptr, i32 }
          cleanup
  invoke void @__cxa_end_catch()
          to label %lpad.body.i unwind label %terminate.lpad.i.i.i

terminate.lpad.i.i.i:                             ; preds = %lpad5.i.i.i
  %5 = landingpad { ptr, i32 }
          catch ptr null
  %6 = extractvalue { ptr, i32 } %5, 0
  tail call void @__clang_call_terminate(ptr %6) #36
  unreachable

unreachable.i.i.i:                                ; preds = %lpad.i.i.i
  unreachable

lpad.body.i:                                      ; preds = %lpad5.i.i.i
  tail call void @_ZN5boost6detail12shared_countD2Ev(ptr noundef nonnull align 8 dereferenceable(8) %pn.i) #35
  resume { ptr, i32 } %4

_ZN5boost10shared_ptrIN8QuantLib9GFunctionEEC2INS1_16GFunctionFactory17GFunctionStandardEEEPT_.exit: ; preds = %entry
  %use_count_.i.i.i.i.i = getelementptr inbounds nuw i8, ptr %call.i.i.i, i64 8
  store i32 1, ptr %use_count_.i.i.i.i.i, align 8, !tbaa !120
  %weak_count_.i.i.i.i.i = getelementptr inbounds nuw i8, ptr %call.i.i.i, i64 12
  store i32 1, ptr %weak_count_.i.i.i.i.i, align 4, !tbaa !122
  store ptr getelementptr inbounds inrange(-16, 56) (i8, ptr @_ZTVN5boost6detail17sp_counted_impl_pIN8QuantLib16GFunctionFactory17GFunctionStandardEEE, i64 16), ptr %call.i.i.i, align 8, !tbaa !35
  %px_.i.i.i.i = getelementptr inbounds nuw i8, ptr %call.i.i.i, i64 16
  store ptr %call, ptr %px_.i.i.i.i, align 8, !tbaa !137
  store ptr %call.i.i.i, ptr %pn.i, align 8, !tbaa !37
  ret void
}